; Function Attrs: nounwind uwtable
define hidden range(i32 0, 2) i32 @X509_VERIFY_PARAM_set1_ip(ptr noundef readonly captures(none) %0, ptr noundef %1, i64 noundef %2) local_unnamed_addr #0 {
  switch i64 %2, label %int_x509_param_set1.exit [
    i64 16, label %4
    i64 4, label %4
    i64 0, label %4
  ]

4:                                                ; preds = %3, %3, %3
  %5 = getelementptr inbounds nuw i8, ptr %0, i64 56
  %6 = load ptr, ptr %5, align 8, !tbaa !6
  %7 = getelementptr inbounds nuw i8, ptr %6, i64 40
  %8 = getelementptr inbounds nuw i8, ptr %6, i64 48
  %.not.i = icmp eq ptr %1, null
  br i1 %.not.i, label %17, label %9

9:                                                ; preds = %4
  %10 = icmp eq i64 %2, 0
  br i1 %10, label %11, label %14

11:                                               ; preds = %9
  %12 = tail call ptr @BUF_strdup(ptr noundef nonnull %1) #16
  %13 = tail call i64 @strlen(ptr noundef nonnull dereferenceable(1) %1) #17
  br label %16

14:                                               ; preds = %9
  %15 = tail call ptr @BUF_memdup(ptr noundef nonnull %1, i64 noundef %2) #16
  br label %16

16:                                               ; preds = %14, %11
  %.014.i = phi i64 [ %13, %11 ], [ %2, %14 ]
  %.0.i = phi ptr [ %12, %11 ], [ %15, %14 ]
  %.not21.i = icmp eq ptr %.0.i, null
  br i1 %.not21.i, label %int_x509_param_set1.exit, label %17

17:                                               ; preds = %16, %4
  %.115.i = phi i64 [ %.014.i, %16 ], [ 0, %4 ]
  %.1.i = phi ptr [ %.0.i, %16 ], [ null, %4 ]
  %18 = load ptr, ptr %7, align 8, !tbaa !32
  %.not22.i = icmp eq ptr %18, null
  br i1 %.not22.i, label %20, label %19

19:                                               ; preds = %17
  tail call void @free(ptr noundef nonnull %18) #16
  br label %20

20:                                               ; preds = %19, %17
  store ptr %.1.i, ptr %7, align 8, !tbaa !32
  store i64 %.115.i, ptr %8, align 8, !tbaa !33
  br label %int_x509_param_set1.exit

int_x509_param_set1.exit:                         ; preds = %20, %16, %3
  %.0 = phi i32 [ 0, %3 ], [ 0, %16 ], [ 1, %20 ]
  ret i32 %.0
}